; ModuleID = '55/461.c'
source_filename = "55/461.c"
target datalayout = "e-m:e-p270:32:32-p271:32:32-p272:64:64-i64:64-f80:128-n8:16:32:64-S128"
target triple = "x86_64-pc-linux-gnu"

@.str = private unnamed_addr constant [7 x i8] c"%d%s%d\00", align 1
@.str.1 = private unnamed_addr constant [3 x i8] c"%c\00", align 1
@.str.2 = private unnamed_addr constant [2 x i8] c"0\00", align 1

; Function Attrs: noinline nounwind uwtable
define dso_local void @main() #0 {
  %1 = alloca i32, align 4
  %2 = alloca i32, align 4
  %3 = alloca i32, align 4
  %4 = alloca i32, align 4
  %5 = alloca [20 x i8], align 16
  %6 = alloca [20 x i32], align 16
  %7 = alloca [200 x i8], align 16
  %8 = alloca i32, align 4
  %9 = alloca i32, align 4
  %10 = alloca i32, align 4
  %11 = alloca i32, align 4
  store i32 0, i32* %11, align 4
  %12 = getelementptr inbounds [20 x i8], [20 x i8]* %5, i64 0, i64 0
  %13 = call i32 (i8*, ...) @__isoc99_scanf(i8* getelementptr inbounds ([7 x i8], [7 x i8]* @.str, i64 0, i64 0), i32* %1, i8* %12, i32* %2)
  store i32 0, i32* %8, align 4
  br label %14

14:                                               ; preds = %96, %0
  %15 = load i32, i32* %8, align 4
  %16 = sext i32 %15 to i64
  %17 = getelementptr inbounds [20 x i8], [20 x i8]* %5, i64 0, i64 %16
  %18 = load i8, i8* %17, align 1
  %19 = sext i8 %18 to i32
  %20 = icmp ne i32 %19, 0
  br i1 %20, label %21, label %99

21:                                               ; preds = %14
  %22 = load i32, i32* %8, align 4
  %23 = sext i32 %22 to i64
  %24 = getelementptr inbounds [20 x i8], [20 x i8]* %5, i64 0, i64 %23
  %25 = load i8, i8* %24, align 1
  %26 = sext i8 %25 to i32
  %27 = icmp sge i32 %26, 97
  br i1 %27, label %28, label %46

28:                                               ; preds = %21
  %29 = load i32, i32* %8, align 4
  %30 = sext i32 %29 to i64
  %31 = getelementptr inbounds [20 x i8], [20 x i8]* %5, i64 0, i64 %30
  %32 = load i8, i8* %31, align 1
  %33 = sext i8 %32 to i32
  %34 = icmp sle i32 %33, 122
  br i1 %34, label %35, label %46

35:                                               ; preds = %28
  %36 = load i32, i32* %8, align 4
  %37 = sext i32 %36 to i64
  %38 = getelementptr inbounds [20 x i8], [20 x i8]* %5, i64 0, i64 %37
  %39 = load i8, i8* %38, align 1
  %40 = sext i8 %39 to i32
  %41 = sub nsw i32 %40, 97
  %42 = add nsw i32 %41, 10
  %43 = load i32, i32* %8, align 4
  %44 = sext i32 %43 to i64
  %45 = getelementptr inbounds [20 x i32], [20 x i32]* %6, i64 0, i64 %44
  store i32 %42, i32* %45, align 4
  br label %46

46:                                               ; preds = %35, %28, %21
  %47 = load i32, i32* %8, align 4
  %48 = sext i32 %47 to i64
  %49 = getelementptr inbounds [20 x i8], [20 x i8]* %5, i64 0, i64 %48
  %50 = load i8, i8* %49, align 1
  %51 = sext i8 %50 to i32
  %52 = icmp sge i32 %51, 65
  br i1 %52, label %53, label %71

53:                                               ; preds = %46
  %54 = load i32, i32* %8, align 4
  %55 = sext i32 %54 to i64
  %56 = getelementptr inbounds [20 x i8], [20 x i8]* %5, i64 0, i64 %55
  %57 = load i8, i8* %56, align 1
  %58 = sext i8 %57 to i32
  %59 = icmp sle i32 %58, 90
  br i1 %59, label %60, label %71

60:                                               ; preds = %53
  %61 = load i32, i32* %8, align 4
  %62 = sext i32 %61 to i64
  %63 = getelementptr inbounds [20 x i8], [20 x i8]* %5, i64 0, i64 %62
  %64 = load i8, i8* %63, align 1
  %65 = sext i8 %64 to i32
  %66 = sub nsw i32 %65, 65
  %67 = add nsw i32 %66, 10
  %68 = load i32, i32* %8, align 4
  %69 = sext i32 %68 to i64
  %70 = getelementptr inbounds [20 x i32], [20 x i32]* %6, i64 0, i64 %69
  store i32 %67, i32* %70, align 4
  br label %71

71:                                               ; preds = %60, %53, %46
  %72 = load i32, i32* %8, align 4
  %73 = sext i32 %72 to i64
  %74 = getelementptr inbounds [20 x i8], [20 x i8]* %5, i64 0, i64 %73
  %75 = load i8, i8* %74, align 1
  %76 = sext i8 %75 to i32
  %77 = icmp sge i32 %76, 48
  br i1 %77, label %78, label %95

78:                                               ; preds = %71
  %79 = load i32, i32* %8, align 4
  %80 = sext i32 %79 to i64
  %81 = getelementptr inbounds [20 x i8], [20 x i8]* %5, i64 0, i64 %80
  %82 = load i8, i8* %81, align 1
  %83 = sext i8 %82 to i32
  %84 = icmp sle i32 %83, 57
  br i1 %84, label %85, label %95

85:                                               ; preds = %78
  %86 = load i32, i32* %8, align 4
  %87 = sext i32 %86 to i64
  %88 = getelementptr inbounds [20 x i8], [20 x i8]* %5, i64 0, i64 %87
  %89 = load i8, i8* %88, align 1
  %90 = sext i8 %89 to i32
  %91 = sub nsw i32 %90, 48
  %92 = load i32, i32* %8, align 4
  %93 = sext i32 %92 to i64
  %94 = getelementptr inbounds [20 x i32], [20 x i32]* %6, i64 0, i64 %93
  store i32 %91, i32* %94, align 4
  br label %95

95:                                               ; preds = %85, %78, %71
  br label %96

96:                                               ; preds = %95
  %97 = load i32, i32* %8, align 4
  %98 = add nsw i32 %97, 1
  store i32 %98, i32* %8, align 4
  br label %14

99:                                               ; preds = %14
  %100 = load i32, i32* %8, align 4
  store i32 %100, i32* %4, align 4
  store i32 0, i32* %3, align 4
  store i32 0, i32* %9, align 4
  br label %101

101:                                              ; preds = %114, %99
  %102 = load i32, i32* %9, align 4
  %103 = load i32, i32* %4, align 4
  %104 = icmp slt i32 %102, %103
  br i1 %104, label %105, label %117

105:                                              ; preds = %101
  %106 = load i32, i32* %3, align 4
  %107 = load i32, i32* %1, align 4
  %108 = mul nsw i32 %106, %107
  %109 = load i32, i32* %9, align 4
  %110 = sext i32 %109 to i64
  %111 = getelementptr inbounds [20 x i32], [20 x i32]* %6, i64 0, i64 %110
  %112 = load i32, i32* %111, align 4
  %113 = add nsw i32 %108, %112
  store i32 %113, i32* %3, align 4
  br label %114

114:                                              ; preds = %105
  %115 = load i32, i32* %9, align 4
  %116 = add nsw i32 %115, 1
  store i32 %116, i32* %9, align 4
  br label %101

117:                                              ; preds = %101
  store i32 0, i32* %8, align 4
  br label %118

118:                                              ; preds = %143, %117
  %119 = load i32, i32* %3, align 4
  %120 = icmp ne i32 %119, 0
  br i1 %120, label %121, label %146

121:                                              ; preds = %118
  %122 = load i32, i32* %3, align 4
  %123 = load i32, i32* %2, align 4
  %124 = srem i32 %122, %123
  store i32 %124, i32* %11, align 4
  %125 = load i32, i32* %3, align 4
  %126 = load i32, i32* %2, align 4
  %127 = sdiv i32 %125, %126
  store i32 %127, i32* %3, align 4
  %128 = load i32, i32* %11, align 4
  %129 = icmp sge i32 %128, 10
  br i1 %129, label %130, label %134

130:                                              ; preds = %121
  %131 = load i32, i32* %11, align 4
  %132 = sub nsw i32 %131, 10
  %133 = add nsw i32 %132, 65
  store i32 %133, i32* %11, align 4
  br label %137

134:                                              ; preds = %121
  %135 = load i32, i32* %11, align 4
  %136 = add nsw i32 %135, 48
  store i32 %136, i32* %11, align 4
  br label %137

137:                                              ; preds = %134, %130
  %138 = load i32, i32* %11, align 4
  %139 = trunc i32 %138 to i8
  %140 = load i32, i32* %8, align 4
  %141 = sext i32 %140 to i64
  %142 = getelementptr inbounds [200 x i8], [200 x i8]* %7, i64 0, i64 %141
  store i8 %139, i8* %142, align 1
  br label %143

143:                                              ; preds = %137
  %144 = load i32, i32* %8, align 4
  %145 = add nsw i32 %144, 1
  store i32 %145, i32* %8, align 4
  br label %118

146:                                              ; preds = %118
  %147 = load i32, i32* %8, align 4
  %148 = sext i32 %147 to i64
  %149 = getelementptr inbounds [200 x i8], [200 x i8]* %7, i64 0, i64 %148
  store i8 0, i8* %149, align 1
  %150 = load i32, i32* %8, align 4
  %151 = sub nsw i32 %150, 1
  store i32 %151, i32* %10, align 4
  br label %152

152:                                              ; preds = %162, %146
  %153 = load i32, i32* %10, align 4
  %154 = icmp sge i32 %153, 0
  br i1 %154, label %155, label %165

155:                                              ; preds = %152
  %156 = load i32, i32* %10, align 4
  %157 = sext i32 %156 to i64
  %158 = getelementptr inbounds [200 x i8], [200 x i8]* %7, i64 0, i64 %157
  %159 = load i8, i8* %158, align 1
  %160 = sext i8 %159 to i32
  %161 = call i32 (i8*, ...) @printf(i8* getelementptr inbounds ([3 x i8], [3 x i8]* @.str.1, i64 0, i64 0), i32 %160)
  br label %162

162:                                              ; preds = %155
  %163 = load i32, i32* %10, align 4
  %164 = add nsw i32 %163, -1
  store i32 %164, i32* %10, align 4
  br label %152

165:                                              ; preds = %152
  %166 = load i32, i32* %8, align 4
  %167 = icmp eq i32 %166, 0
  br i1 %167, label %168, label %170

168:                                              ; preds = %165
  %169 = call i32 (i8*, ...) @printf(i8* getelementptr inbounds ([2 x i8], [2 x i8]* @.str.2, i64 0, i64 0))
  br label %170

170:                                              ; preds = %168, %165
  ret void
}

declare dso_local i32 @__isoc99_scanf(i8*, ...) #1

declare dso_local i32 @printf(i8*, ...) #1


!llvm.module.flags = !{!0}
!llvm.ident = !{!1}

!0 = !{i32 1, !"wchar_size", i32 4}
!1 = !{!"clang version 10.0.0-4ubuntu1 "}
